; Function Attrs: nounwind sspstrong uwtable
define internal noundef i32 @parse_vms12_cb(i64 noundef %0, i64 noundef %1) #0 {
  %3 = tail call i64 @rb_reg_nth_match(i32 noundef 1, i64 noundef %0) #13
  %4 = tail call i64 @rb_reg_nth_match(i32 noundef 2, i64 noundef %0) #13
  %5 = tail call i64 @rb_reg_nth_match(i32 noundef 3, i64 noundef %0) #13
  %6 = inttoptr i64 %3 to ptr
  %7 = load i64, ptr %6, align 8, !tbaa !13, !noalias !188
  %8 = and i64 %7, 8192
  %.not.i.i.i = icmp eq i64 %8, 0
  %9 = getelementptr inbounds nuw i8, ptr %6, i64 24
  br i1 %.not.i.i.i, label %RSTRING_PTR.exit.us.i, label %.split.i

RSTRING_PTR.exit.us.i:                            ; preds = %2, %13
  %indvars.iv11.i = phi i64 [ %indvars.iv.next12.i, %13 ], [ 0, %2 ]
  %10 = getelementptr inbounds nuw [12 x [4 x i8]], ptr @abbr_months, i64 0, i64 %indvars.iv11.i
  %11 = tail call i32 @rb_st_locale_insensitive_strncasecmp(ptr noundef nonnull %10, ptr noundef nonnull %9, i64 noundef 3) #12
  %12 = icmp eq i32 %11, 0
  br i1 %12, label %mon_num.exit, label %13

13:                                               ; preds = %RSTRING_PTR.exit.us.i
  %indvars.iv.next12.i = add nuw nsw i64 %indvars.iv11.i, 1
  %exitcond14.not.i = icmp eq i64 %indvars.iv.next12.i, 12
  br i1 %exitcond14.not.i, label %mon_num.exit, label %RSTRING_PTR.exit.us.i, !llvm.loop !112

.split.i:                                         ; preds = %2
  %.sroa.2.0.copyload.i.i = load ptr, ptr %9, align 8
  br label %RSTRING_PTR.exit.i

RSTRING_PTR.exit.i:                               ; preds = %17, %.split.i
  %indvars.iv.i = phi i64 [ 0, %.split.i ], [ %indvars.iv.next.i, %17 ]
  %14 = getelementptr inbounds nuw [12 x [4 x i8]], ptr @abbr_months, i64 0, i64 %indvars.iv.i
  %15 = tail call i32 @rb_st_locale_insensitive_strncasecmp(ptr noundef nonnull %14, ptr noundef %.sroa.2.0.copyload.i.i, i64 noundef 3) #12
  %16 = icmp eq i32 %15, 0
  br i1 %16, label %mon_num.exit, label %17

17:                                               ; preds = %RSTRING_PTR.exit.i
  %indvars.iv.next.i = add nuw nsw i64 %indvars.iv.i, 1
  %exitcond.not.i = icmp eq i64 %indvars.iv.next.i, 12
  br i1 %exitcond.not.i, label %mon_num.exit, label %RSTRING_PTR.exit.i, !llvm.loop !112

mon_num.exit:                                     ; preds = %RSTRING_PTR.exit.i, %17, %RSTRING_PTR.exit.us.i, %13
  %.us-phi.i = phi i64 [ %indvars.iv11.i, %RSTRING_PTR.exit.us.i ], [ 12, %13 ], [ %indvars.iv.i, %RSTRING_PTR.exit.i ], [ 12, %17 ]
  %18 = shl i64 %.us-phi.i, 32
  %sext = add i64 %18, 4294967296
  %19 = ashr exact i64 %sext, 31
  %20 = or disjoint i64 %19, 1
  tail call fastcc void @s3e(i64 noundef %1, i64 noundef %5, i64 noundef %20, i64 noundef %4, i32 noundef 0)
  ret i32 1
}